target datalayout = "e-m:e-p270:32:32-p271:32:32-p272:64:64-i64:64-i128:128-f80:128-n8:16:32:64-S128"
target triple = "x86_64-pc-linux-gnu"

%struct.cache_time = type { i32, i32 }
%struct.object_id = type { [32 x i8], i32 }
%struct.cache_entry = type { %struct.hashmap_entry, %struct.stat_data, i32, i32, i32, i32, i32, %struct.object_id, [0 x i8] }
%struct.hashmap_entry = type { ptr, i32 }
%struct.stat_data = type { %struct.cache_time, %struct.cache_time, i32, i32, i32, i32, i32 }

; Function Attrs: nounwind uwtable
define dso_local i32 @ie_modified(ptr noundef %0, ptr noundef %1, ptr noundef %2, i32 noundef %3) #0 {
  %5 = alloca i32, align 4
  %6 = alloca ptr, align 8
  %7 = alloca ptr, align 8
  %8 = alloca ptr, align 8
  %9 = alloca i32, align 4
  %10 = alloca i32, align 4
  %11 = alloca i32, align 4
  %12 = alloca i32, align 4
  store ptr %0, ptr %6, align 8, !tbaa !4
  store ptr %1, ptr %7, align 8, !tbaa !29
  store ptr %2, ptr %8, align 8, !tbaa !36
  store i32 %3, ptr %9, align 4, !tbaa !9
  call void @llvm.lifetime.start.p0(i64 4, ptr %10) #12
  call void @llvm.lifetime.start.p0(i64 4, ptr %11) #12
  %13 = load ptr, ptr %6, align 8, !tbaa !4
  %14 = load ptr, ptr %7, align 8, !tbaa !29
  %15 = load ptr, ptr %8, align 8, !tbaa !36
  %16 = load i32, ptr %9, align 4, !tbaa !9
  %17 = call i32 @ie_match_stat(ptr noundef %13, ptr noundef %14, ptr noundef %15, i32 noundef %16)
  store i32 %17, ptr %10, align 4, !tbaa !9
  %18 = load i32, ptr %10, align 4, !tbaa !9
  %19 = icmp ne i32 %18, 0
  br i1 %19, label %21, label %20

20:                                               ; preds = %4
  store i32 0, ptr %5, align 4
  store i32 1, ptr %12, align 4
  br label %57

21:                                               ; preds = %4
  %22 = load i32, ptr %10, align 4, !tbaa !9
  %23 = and i32 %22, 72
  %24 = icmp ne i32 %23, 0
  br i1 %24, label %25, label %27

25:                                               ; preds = %21
  %26 = load i32, ptr %10, align 4, !tbaa !9
  store i32 %26, ptr %5, align 4
  store i32 1, ptr %12, align 4
  br label %57

27:                                               ; preds = %21
  %28 = load i32, ptr %10, align 4, !tbaa !9
  %29 = and i32 %28, 32
  %30 = icmp ne i32 %29, 0
  br i1 %30, label %31, label %45

31:                                               ; preds = %27
  %32 = load ptr, ptr %7, align 8, !tbaa !29
  %33 = getelementptr inbounds nuw %struct.cache_entry, ptr %32, i32 0, i32 2
  %34 = load i32, ptr %33, align 4, !tbaa !9
  %35 = and i32 %34, 61440
  %36 = icmp eq i32 %35, 57344
  br i1 %36, label %43, label %37

37:                                               ; preds = %31
  %38 = load ptr, ptr %7, align 8, !tbaa !29
  %39 = getelementptr inbounds nuw %struct.cache_entry, ptr %38, i32 0, i32 1
  %40 = getelementptr inbounds nuw %struct.stat_data, ptr %39, i32 0, i32 6
  %41 = load i32, ptr %40, align 8, !tbaa !47
  %42 = icmp ne i32 %41, 0
  br i1 %42, label %43, label %45

43:                                               ; preds = %37, %31
  %44 = load i32, ptr %10, align 4, !tbaa !9
  store i32 %44, ptr %5, align 4
  store i32 1, ptr %12, align 4
  br label %57

45:                                               ; preds = %37, %27
  %46 = load ptr, ptr %6, align 8, !tbaa !4
  %47 = load ptr, ptr %7, align 8, !tbaa !29
  %48 = load ptr, ptr %8, align 8, !tbaa !36
  %49 = call i32 @ce_modified_check_fs(ptr noundef %46, ptr noundef %47, ptr noundef %48)
  store i32 %49, ptr %11, align 4, !tbaa !9
  %50 = load i32, ptr %11, align 4, !tbaa !9
  %51 = icmp ne i32 %50, 0
  br i1 %51, label %52, label %56

52:                                               ; preds = %45
  %53 = load i32, ptr %10, align 4, !tbaa !9
  %54 = load i32, ptr %11, align 4, !tbaa !9
  %55 = or i32 %53, %54
  store i32 %55, ptr %5, align 4
  store i32 1, ptr %12, align 4
  br label %57

56:                                               ; preds = %45
  store i32 0, ptr %5, align 4
  store i32 1, ptr %12, align 4
  br label %57

57:                                               ; preds = %56, %52, %43, %25, %20
  call void @llvm.lifetime.end.p0(i64 4, ptr %11) #12
  call void @llvm.lifetime.end.p0(i64 4, ptr %10) #12
  %58 = load i32, ptr %5, align 4
  ret i32 %58
}