; Function Attrs: nounwind uwtable
define dso_local i32 @ie_modified(ptr noundef %0, ptr noundef %1, ptr noundef %2, i32 noundef %3) local_unnamed_addr #0 {
  %5 = tail call i32 @ie_match_stat(ptr noundef %0, ptr noundef %1, ptr noundef %2, i32 noundef %3)
  %.not = icmp eq i32 %5, 0
  br i1 %.not, label %21, label %6

6:                                                ; preds = %4
  %7 = and i32 %5, 72
  %.not19 = icmp eq i32 %7, 0
  br i1 %.not19, label %8, label %21

8:                                                ; preds = %6
  %9 = and i32 %5, 32
  %.not20 = icmp eq i32 %9, 0
  br i1 %.not20, label %18, label %10

10:                                               ; preds = %8
  %11 = getelementptr inbounds nuw i8, ptr %1, i64 52
  %12 = load i32, ptr %11, align 4, !tbaa !32
  %13 = and i32 %12, 61440
  %14 = icmp eq i32 %13, 57344
  br i1 %14, label %21, label %15

15:                                               ; preds = %10
  %16 = getelementptr inbounds nuw i8, ptr %1, i64 48
  %17 = load i32, ptr %16, align 8, !tbaa !53
  %.not21 = icmp eq i32 %17, 0
  br i1 %.not21, label %18, label %21

18:                                               ; preds = %15, %8
  %19 = tail call fastcc i32 @ce_modified_check_fs(ptr noundef %0, ptr noundef %1, ptr noundef %2)
  %.not22 = icmp eq i32 %19, 0
  %20 = or i32 %19, %5
  %spec.select = select i1 %.not22, i32 0, i32 %20
  br label %21

21:                                               ; preds = %18, %10, %15, %6, %4
  %.0 = phi i32 [ 0, %4 ], [ %5, %6 ], [ %5, %15 ], [ %5, %10 ], [ %spec.select, %18 ]
  ret i32 %.0
}